target datalayout = "e-m:e-p270:32:32-p271:32:32-p272:64:64-i64:64-i128:128-f80:128-n8:16:32:64-S128"
target triple = "x86_64-pc-linux-gnu"

%struct.H5O_fsinfo_t = type { i32, i32, i8, i64, i64, i64, i64, [12 x i64], i8 }

; Function Attrs: nounwind uwtable
define internal i32 @H5O__fsinfo_encode(ptr noundef %0, i1 noundef zeroext %1, i64 noundef %2, ptr noundef %3, ptr noundef %4) #0 {
  %6 = alloca ptr, align 8
  %7 = alloca i8, align 1
  %8 = alloca i64, align 8
  %9 = alloca ptr, align 8
  %10 = alloca ptr, align 8
  %11 = alloca ptr, align 8
  %12 = alloca i32, align 4
  %13 = alloca i64, align 8
  %14 = alloca i64, align 8
  %15 = alloca ptr, align 8
  %16 = alloca i64, align 8
  %17 = alloca i64, align 8
  %18 = alloca ptr, align 8
  store ptr %0, ptr %6, align 8
  %19 = zext i1 %1 to i8
  store i8 %19, ptr %7, align 1
  store i64 %2, ptr %8, align 8
  store ptr %3, ptr %9, align 8
  store ptr %4, ptr %10, align 8
  %20 = load ptr, ptr %10, align 8
  store ptr %20, ptr %11, align 8
  %21 = load ptr, ptr %11, align 8
  %22 = getelementptr inbounds %struct.H5O_fsinfo_t, ptr %21, i32 0, i32 0
  %23 = load i32, ptr %22, align 8
  %24 = trunc i32 %23 to i8
  %25 = load ptr, ptr %9, align 8
  %26 = getelementptr inbounds i8, ptr %25, i32 1
  store ptr %26, ptr %9, align 8
  store i8 %24, ptr %25, align 1
  %27 = load ptr, ptr %11, align 8
  %28 = getelementptr inbounds %struct.H5O_fsinfo_t, ptr %27, i32 0, i32 1
  %29 = load i32, ptr %28, align 4
  %30 = trunc i32 %29 to i8
  %31 = load ptr, ptr %9, align 8
  %32 = getelementptr inbounds i8, ptr %31, i32 1
  store ptr %32, ptr %9, align 8
  store i8 %30, ptr %31, align 1
  %33 = load ptr, ptr %11, align 8
  %34 = getelementptr inbounds %struct.H5O_fsinfo_t, ptr %33, i32 0, i32 2
  %35 = load i8, ptr %34, align 8
  %36 = trunc i8 %35 to i1
  %37 = zext i1 %36 to i8
  %38 = load ptr, ptr %9, align 8
  %39 = getelementptr inbounds i8, ptr %38, i32 1
  store ptr %39, ptr %9, align 8
  store i8 %37, ptr %38, align 1
  br label %40

40:                                               ; preds = %5
  %41 = load ptr, ptr %6, align 8
  %42 = call zeroext i8 @H5F_sizeof_size(ptr noundef %41)
  %43 = zext i8 %42 to i32
  switch i32 %43, label %138 [
    i32 4, label %44
    i32 8, label %82
    i32 2, label %116
  ]

44:                                               ; preds = %40
  br label %45

45:                                               ; preds = %44
  %46 = load ptr, ptr %11, align 8
  %47 = getelementptr inbounds %struct.H5O_fsinfo_t, ptr %46, i32 0, i32 3
  %48 = load i64, ptr %47, align 8
  %49 = and i64 %48, 255
  %50 = trunc i64 %49 to i8
  %51 = load ptr, ptr %9, align 8
  store i8 %50, ptr %51, align 1
  %52 = load ptr, ptr %9, align 8
  %53 = getelementptr inbounds i8, ptr %52, i32 1
  store ptr %53, ptr %9, align 8
  %54 = load ptr, ptr %11, align 8
  %55 = getelementptr inbounds %struct.H5O_fsinfo_t, ptr %54, i32 0, i32 3
  %56 = load i64, ptr %55, align 8
  %57 = lshr i64 %56, 8
  %58 = and i64 %57, 255
  %59 = trunc i64 %58 to i8
  %60 = load ptr, ptr %9, align 8
  store i8 %59, ptr %60, align 1
  %61 = load ptr, ptr %9, align 8
  %62 = getelementptr inbounds i8, ptr %61, i32 1
  store ptr %62, ptr %9, align 8
  %63 = load ptr, ptr %11, align 8
  %64 = getelementptr inbounds %struct.H5O_fsinfo_t, ptr %63, i32 0, i32 3
  %65 = load i64, ptr %64, align 8
  %66 = lshr i64 %65, 16
  %67 = and i64 %66, 255
  %68 = trunc i64 %67 to i8
  %69 = load ptr, ptr %9, align 8
  store i8 %68, ptr %69, align 1
  %70 = load ptr, ptr %9, align 8
  %71 = getelementptr inbounds i8, ptr %70, i32 1
  store ptr %71, ptr %9, align 8
  %72 = load ptr, ptr %11, align 8
  %73 = getelementptr inbounds %struct.H5O_fsinfo_t, ptr %72, i32 0, i32 3
  %74 = load i64, ptr %73, align 8
  %75 = lshr i64 %74, 24
  %76 = and i64 %75, 255
  %77 = trunc i64 %76 to i8
  %78 = load ptr, ptr %9, align 8
  store i8 %77, ptr %78, align 1
  %79 = load ptr, ptr %9, align 8
  %80 = getelementptr inbounds i8, ptr %79, i32 1
  store ptr %80, ptr %9, align 8
  br label %81

81:                                               ; preds = %45
  br label %139

82:                                               ; preds = %40
  br label %83

83:                                               ; preds = %82
  %84 = load ptr, ptr %11, align 8
  %85 = getelementptr inbounds %struct.H5O_fsinfo_t, ptr %84, i32 0, i32 3
  %86 = load i64, ptr %85, align 8
  store i64 %86, ptr %13, align 8
  %87 = load ptr, ptr %9, align 8
  store ptr %87, ptr %15, align 8
  store i64 0, ptr %14, align 8
  br label %88

88:                                               ; preds = %97, %83
  %89 = load i64, ptr %14, align 8
  %90 = icmp ult i64 %89, 8
  br i1 %90, label %91, label %102

91:                                               ; preds = %88
  %92 = load i64, ptr %13, align 8
  %93 = and i64 %92, 255
  %94 = trunc i64 %93 to i8
  %95 = load ptr, ptr %15, align 8
  %96 = getelementptr inbounds i8, ptr %95, i32 1
  store ptr %96, ptr %15, align 8
  store i8 %94, ptr %95, align 1
  br label %97

97:                                               ; preds = %91
  %98 = load i64, ptr %14, align 8
  %99 = add i64 %98, 1
  store i64 %99, ptr %14, align 8
  %100 = load i64, ptr %13, align 8
  %101 = lshr i64 %100, 8
  store i64 %101, ptr %13, align 8
  br label %88

102:                                              ; preds = %88
  br label %103

103:                                              ; preds = %109, %102
  %104 = load i64, ptr %14, align 8
  %105 = icmp ult i64 %104, 8
  br i1 %105, label %106, label %112

106:                                              ; preds = %103
  %107 = load ptr, ptr %15, align 8
  %108 = getelementptr inbounds i8, ptr %107, i32 1
  store ptr %108, ptr %15, align 8
  store i8 0, ptr %107, align 1
  br label %109

109:                                              ; preds = %106
  %110 = load i64, ptr %14, align 8
  %111 = add i64 %110, 1
  store i64 %111, ptr %14, align 8
  br label %103

112:                                              ; preds = %103
  %113 = load ptr, ptr %9, align 8
  %114 = getelementptr inbounds i8, ptr %113, i64 8
  store ptr %114, ptr %9, align 8
  br label %115

115:                                              ; preds = %112
  br label %139

116:                                              ; preds = %40
  br label %117

117:                                              ; preds = %116
  %118 = load ptr, ptr %11, align 8
  %119 = getelementptr inbounds %struct.H5O_fsinfo_t, ptr %118, i32 0, i32 3
  %120 = load i64, ptr %119, align 8
  %121 = trunc i64 %120 to i32
  %122 = and i32 %121, 255
  %123 = trunc i32 %122 to i8
  %124 = load ptr, ptr %9, align 8
  store i8 %123, ptr %124, align 1
  %125 = load ptr, ptr %9, align 8
  %126 = getelementptr inbounds i8, ptr %125, i32 1
  store ptr %126, ptr %9, align 8
  %127 = load ptr, ptr %11, align 8
  %128 = getelementptr inbounds %struct.H5O_fsinfo_t, ptr %127, i32 0, i32 3
  %129 = load i64, ptr %128, align 8
  %130 = trunc i64 %129 to i32
  %131 = lshr i32 %130, 8
  %132 = and i32 %131, 255
  %133 = trunc i32 %132 to i8
  %134 = load ptr, ptr %9, align 8
  store i8 %133, ptr %134, align 1
  %135 = load ptr, ptr %9, align 8
  %136 = getelementptr inbounds i8, ptr %135, i32 1
  store ptr %136, ptr %9, align 8
  br label %137

137:                                              ; preds = %117
  br label %139

138:                                              ; preds = %40
  br label %139

139:                                              ; preds = %138, %137, %115, %81
  br label %140

140:                                              ; preds = %139
  br label %141

141:                                              ; preds = %140
  %142 = load ptr, ptr %6, align 8
  %143 = call zeroext i8 @H5F_sizeof_size(ptr noundef %142)
  %144 = zext i8 %143 to i32
  switch i32 %144, label %239 [
    i32 4, label %145
    i32 8, label %183
    i32 2, label %217
  ]

145:                                              ; preds = %141
  br label %146

146:                                              ; preds = %145
  %147 = load ptr, ptr %11, align 8
  %148 = getelementptr inbounds %struct.H5O_fsinfo_t, ptr %147, i32 0, i32 4
  %149 = load i64, ptr %148, align 8
  %150 = and i64 %149, 255
  %151 = trunc i64 %150 to i8
  %152 = load ptr, ptr %9, align 8
  store i8 %151, ptr %152, align 1
  %153 = load ptr, ptr %9, align 8
  %154 = getelementptr inbounds i8, ptr %153, i32 1
  store ptr %154, ptr %9, align 8
  %155 = load ptr, ptr %11, align 8
  %156 = getelementptr inbounds %struct.H5O_fsinfo_t, ptr %155, i32 0, i32 4
  %157 = load i64, ptr %156, align 8
  %158 = lshr i64 %157, 8
  %159 = and i64 %158, 255
  %160 = trunc i64 %159 to i8
  %161 = load ptr, ptr %9, align 8
  store i8 %160, ptr %161, align 1
  %162 = load ptr, ptr %9, align 8
  %163 = getelementptr inbounds i8, ptr %162, i32 1
  store ptr %163, ptr %9, align 8
  %164 = load ptr, ptr %11, align 8
  %165 = getelementptr inbounds %struct.H5O_fsinfo_t, ptr %164, i32 0, i32 4
  %166 = load i64, ptr %165, align 8
  %167 = lshr i64 %166, 16
  %168 = and i64 %167, 255
  %169 = trunc i64 %168 to i8
  %170 = load ptr, ptr %9, align 8
  store i8 %169, ptr %170, align 1
  %171 = load ptr, ptr %9, align 8
  %172 = getelementptr inbounds i8, ptr %171, i32 1
  store ptr %172, ptr %9, align 8
  %173 = load ptr, ptr %11, align 8
  %174 = getelementptr inbounds %struct.H5O_fsinfo_t, ptr %173, i32 0, i32 4
  %175 = load i64, ptr %174, align 8
  %176 = lshr i64 %175, 24
  %177 = and i64 %176, 255
  %178 = trunc i64 %177 to i8
  %179 = load ptr, ptr %9, align 8
  store i8 %178, ptr %179, align 1
  %180 = load ptr, ptr %9, align 8
  %181 = getelementptr inbounds i8, ptr %180, i32 1
  store ptr %181, ptr %9, align 8
  br label %182

182:                                              ; preds = %146
  br label %240

183:                                              ; preds = %141
  br label %184

184:                                              ; preds = %183
  %185 = load ptr, ptr %11, align 8
  %186 = getelementptr inbounds %struct.H5O_fsinfo_t, ptr %185, i32 0, i32 4
  %187 = load i64, ptr %186, align 8
  store i64 %187, ptr %16, align 8
  %188 = load ptr, ptr %9, align 8
  store ptr %188, ptr %18, align 8
  store i64 0, ptr %17, align 8
  br label %189

189:                                              ; preds = %198, %184
  %190 = load i64, ptr %17, align 8
  %191 = icmp ult i64 %190, 8
  br i1 %191, label %192, label %203

192:                                              ; preds = %189
  %193 = load i64, ptr %16, align 8
  %194 = and i64 %193, 255
  %195 = trunc i64 %194 to i8
  %196 = load ptr, ptr %18, align 8
  %197 = getelementptr inbounds i8, ptr %196, i32 1
  store ptr %197, ptr %18, align 8
  store i8 %195, ptr %196, align 1
  br label %198

198:                                              ; preds = %192
  %199 = load i64, ptr %17, align 8
  %200 = add i64 %199, 1
  store i64 %200, ptr %17, align 8
  %201 = load i64, ptr %16, align 8
  %202 = lshr i64 %201, 8
  store i64 %202, ptr %16, align 8
  br label %189

203:                                              ; preds = %189
  br label %204

204:                                              ; preds = %210, %203
  %205 = load i64, ptr %17, align 8
  %206 = icmp ult i64 %205, 8
  br i1 %206, label %207, label %213

207:                                              ; preds = %204
  %208 = load ptr, ptr %18, align 8
  %209 = getelementptr inbounds i8, ptr %208, i32 1
  store ptr %209, ptr %18, align 8
  store i8 0, ptr %208, align 1
  br label %210

210:                                              ; preds = %207
  %211 = load i64, ptr %17, align 8
  %212 = add i64 %211, 1
  store i64 %212, ptr %17, align 8
  br label %204

213:                                              ; preds = %204
  %214 = load ptr, ptr %9, align 8
  %215 = getelementptr inbounds i8, ptr %214, i64 8
  store ptr %215, ptr %9, align 8
  br label %216

216:                                              ; preds = %213
  br label %240

217:                                              ; preds = %141
  br label %218

218:                                              ; preds = %217
  %219 = load ptr, ptr %11, align 8
  %220 = getelementptr inbounds %struct.H5O_fsinfo_t, ptr %219, i32 0, i32 4
  %221 = load i64, ptr %220, align 8
  %222 = trunc i64 %221 to i32
  %223 = and i32 %222, 255
  %224 = trunc i32 %223 to i8
  %225 = load ptr, ptr %9, align 8
  store i8 %224, ptr %225, align 1
  %226 = load ptr, ptr %9, align 8
  %227 = getelementptr inbounds i8, ptr %226, i32 1
  store ptr %227, ptr %9, align 8
  %228 = load ptr, ptr %11, align 8
  %229 = getelementptr inbounds %struct.H5O_fsinfo_t, ptr %228, i32 0, i32 4
  %230 = load i64, ptr %229, align 8
  %231 = trunc i64 %230 to i32
  %232 = lshr i32 %231, 8
  %233 = and i32 %232, 255
  %234 = trunc i32 %233 to i8
  %235 = load ptr, ptr %9, align 8
  store i8 %234, ptr %235, align 1
  %236 = load ptr, ptr %9, align 8
  %237 = getelementptr inbounds i8, ptr %236, i32 1
  store ptr %237, ptr %9, align 8
  br label %238

238:                                              ; preds = %218
  br label %240

239:                                              ; preds = %141
  br label %240

240:                                              ; preds = %239, %238, %216, %182
  br label %241

241:                                              ; preds = %240
  br label %242

242:                                              ; preds = %241
  %243 = load ptr, ptr %11, align 8
  %244 = getelementptr inbounds %struct.H5O_fsinfo_t, ptr %243, i32 0, i32 5
  %245 = load i64, ptr %244, align 8
  %246 = trunc i64 %245 to i32
  %247 = and i32 %246, 255
  %248 = trunc i32 %247 to i8
  %249 = load ptr, ptr %9, align 8
  store i8 %248, ptr %249, align 1
  %250 = load ptr, ptr %9, align 8
  %251 = getelementptr inbounds i8, ptr %250, i32 1
  store ptr %251, ptr %9, align 8
  %252 = load ptr, ptr %11, align 8
  %253 = getelementptr inbounds %struct.H5O_fsinfo_t, ptr %252, i32 0, i32 5
  %254 = load i64, ptr %253, align 8
  %255 = trunc i64 %254 to i32
  %256 = lshr i32 %255, 8
  %257 = and i32 %256, 255
  %258 = trunc i32 %257 to i8
  %259 = load ptr, ptr %9, align 8
  store i8 %258, ptr %259, align 1
  %260 = load ptr, ptr %9, align 8
  %261 = getelementptr inbounds i8, ptr %260, i32 1
  store ptr %261, ptr %9, align 8
  br label %262

262:                                              ; preds = %242
  %263 = load ptr, ptr %6, align 8
  %264 = load ptr, ptr %11, align 8
  %265 = getelementptr inbounds %struct.H5O_fsinfo_t, ptr %264, i32 0, i32 6
  %266 = load i64, ptr %265, align 8
  call void @H5F_addr_encode(ptr noundef %263, ptr noundef %9, i64 noundef %266)
  %267 = load ptr, ptr %11, align 8
  %268 = getelementptr inbounds %struct.H5O_fsinfo_t, ptr %267, i32 0, i32 2
  %269 = load i8, ptr %268, align 8
  %270 = trunc i8 %269 to i1
  br i1 %270, label %271, label %288

271:                                              ; preds = %262
  store i32 1, ptr %12, align 4
  br label %272

272:                                              ; preds = %284, %271
  %273 = load i32, ptr %12, align 4
  %274 = icmp ult i32 %273, 13
  br i1 %274, label %275, label %287

275:                                              ; preds = %272
  %276 = load ptr, ptr %6, align 8
  %277 = load ptr, ptr %11, align 8
  %278 = getelementptr inbounds %struct.H5O_fsinfo_t, ptr %277, i32 0, i32 7
  %279 = load i32, ptr %12, align 4
  %280 = sub i32 %279, 1
  %281 = zext i32 %280 to i64
  %282 = getelementptr inbounds [12 x i64], ptr %278, i64 0, i64 %281
  %283 = load i64, ptr %282, align 8
  call void @H5F_addr_encode(ptr noundef %276, ptr noundef %9, i64 noundef %283)
  br label %284

284:                                              ; preds = %275
  %285 = load i32, ptr %12, align 4
  %286 = add i32 %285, 1
  store i32 %286, ptr %12, align 4
  br label %272

287:                                              ; preds = %272
  br label %288

288:                                              ; preds = %287, %262
  ret i32 0
}