; Function Attrs: nounwind uwtable
define internal noundef i32 @H5O__fsinfo_encode(ptr noundef %0, i1 zeroext %1, i64 %2, ptr noundef %3, ptr nocapture noundef readonly %4) #0 {
  %6 = alloca ptr, align 8
  %7 = load i32, ptr %4, align 8
  %8 = trunc i32 %7 to i8
  %9 = getelementptr inbounds i8, ptr %3, i64 1
  store i8 %8, ptr %3, align 1
  %10 = getelementptr inbounds i8, ptr %4, i64 4
  %11 = load i32, ptr %10, align 4
  %12 = trunc i32 %11 to i8
  %13 = getelementptr inbounds i8, ptr %3, i64 2
  store i8 %12, ptr %9, align 1
  %14 = getelementptr inbounds i8, ptr %4, i64 8
  %15 = load i8, ptr %14, align 8
  %16 = and i8 %15, 1
  %17 = getelementptr inbounds i8, ptr %3, i64 3
  store ptr %17, ptr %6, align 8
  store i8 %16, ptr %13, align 1
  %18 = tail call zeroext i8 @H5F_sizeof_size(ptr noundef %0) #6
  switch i8 %18, label %55 [
    i8 4, label %19
    i8 8, label %36
    i8 2, label %46
  ]

19:                                               ; preds = %5
  %20 = getelementptr inbounds i8, ptr %4, i64 16
  %21 = load i64, ptr %20, align 8
  %22 = trunc i64 %21 to i8
  store i8 %22, ptr %17, align 1
  %23 = getelementptr inbounds i8, ptr %3, i64 4
  %24 = load i64, ptr %20, align 8
  %25 = lshr i64 %24, 8
  %26 = trunc i64 %25 to i8
  store i8 %26, ptr %23, align 1
  %27 = getelementptr inbounds i8, ptr %3, i64 5
  %28 = load i64, ptr %20, align 8
  %29 = lshr i64 %28, 16
  %30 = trunc i64 %29 to i8
  store i8 %30, ptr %27, align 1
  %31 = getelementptr inbounds i8, ptr %3, i64 6
  %32 = load i64, ptr %20, align 8
  %33 = lshr i64 %32, 24
  %34 = trunc i64 %33 to i8
  store i8 %34, ptr %31, align 1
  %35 = getelementptr inbounds i8, ptr %3, i64 7
  store ptr %35, ptr %6, align 8
  br label %55

36:                                               ; preds = %5
  %37 = getelementptr inbounds i8, ptr %4, i64 16
  %38 = load i64, ptr %37, align 8
  br label %39

39:                                               ; preds = %36, %39
  %.04856 = phi ptr [ %17, %36 ], [ %41, %39 ]
  %.05055 = phi i64 [ 0, %36 ], [ %42, %39 ]
  %.05254 = phi i64 [ %38, %36 ], [ %43, %39 ]
  %40 = trunc i64 %.05254 to i8
  %41 = getelementptr inbounds i8, ptr %.04856, i64 1
  store i8 %40, ptr %.04856, align 1
  %42 = add nuw nsw i64 %.05055, 1
  %43 = lshr i64 %.05254, 8
  %exitcond.not = icmp eq i64 %42, 8
  br i1 %exitcond.not, label %44, label %39

44:                                               ; preds = %39
  %45 = getelementptr inbounds i8, ptr %3, i64 11
  store ptr %45, ptr %6, align 8
  br label %55

46:                                               ; preds = %5
  %47 = getelementptr inbounds i8, ptr %4, i64 16
  %48 = load i64, ptr %47, align 8
  %49 = trunc i64 %48 to i8
  store i8 %49, ptr %17, align 1
  %50 = getelementptr inbounds i8, ptr %3, i64 4
  %51 = load i64, ptr %47, align 8
  %52 = lshr i64 %51, 8
  %53 = trunc i64 %52 to i8
  store i8 %53, ptr %50, align 1
  %54 = getelementptr inbounds i8, ptr %3, i64 5
  store ptr %54, ptr %6, align 8
  br label %55

55:                                               ; preds = %5, %46, %44, %19
  %56 = phi ptr [ %17, %5 ], [ %54, %46 ], [ %45, %44 ], [ %35, %19 ]
  %57 = tail call zeroext i8 @H5F_sizeof_size(ptr noundef %0) #6
  switch i8 %57, label %94 [
    i8 4, label %58
    i8 8, label %75
    i8 2, label %85
  ]

58:                                               ; preds = %55
  %59 = getelementptr inbounds i8, ptr %4, i64 24
  %60 = load i64, ptr %59, align 8
  %61 = trunc i64 %60 to i8
  store i8 %61, ptr %56, align 1
  %62 = getelementptr inbounds i8, ptr %56, i64 1
  %63 = load i64, ptr %59, align 8
  %64 = lshr i64 %63, 8
  %65 = trunc i64 %64 to i8
  store i8 %65, ptr %62, align 1
  %66 = getelementptr inbounds i8, ptr %56, i64 2
  %67 = load i64, ptr %59, align 8
  %68 = lshr i64 %67, 16
  %69 = trunc i64 %68 to i8
  store i8 %69, ptr %66, align 1
  %70 = getelementptr inbounds i8, ptr %56, i64 3
  %71 = load i64, ptr %59, align 8
  %72 = lshr i64 %71, 24
  %73 = trunc i64 %72 to i8
  store i8 %73, ptr %70, align 1
  %74 = getelementptr inbounds i8, ptr %56, i64 4
  store ptr %74, ptr %6, align 8
  br label %94

75:                                               ; preds = %55
  %76 = getelementptr inbounds i8, ptr %4, i64 24
  %77 = load i64, ptr %76, align 8
  br label %78

78:                                               ; preds = %75, %78
  %.059 = phi ptr [ %56, %75 ], [ %80, %78 ]
  %.04558 = phi i64 [ 0, %75 ], [ %81, %78 ]
  %.04757 = phi i64 [ %77, %75 ], [ %82, %78 ]
  %79 = trunc i64 %.04757 to i8
  %80 = getelementptr inbounds i8, ptr %.059, i64 1
  store i8 %79, ptr %.059, align 1
  %81 = add nuw nsw i64 %.04558, 1
  %82 = lshr i64 %.04757, 8
  %exitcond61.not = icmp eq i64 %81, 8
  br i1 %exitcond61.not, label %83, label %78

83:                                               ; preds = %78
  %84 = getelementptr inbounds i8, ptr %56, i64 8
  store ptr %84, ptr %6, align 8
  br label %94

85:                                               ; preds = %55
  %86 = getelementptr inbounds i8, ptr %4, i64 24
  %87 = load i64, ptr %86, align 8
  %88 = trunc i64 %87 to i8
  store i8 %88, ptr %56, align 1
  %89 = getelementptr inbounds i8, ptr %56, i64 1
  %90 = load i64, ptr %86, align 8
  %91 = lshr i64 %90, 8
  %92 = trunc i64 %91 to i8
  store i8 %92, ptr %89, align 1
  %93 = getelementptr inbounds i8, ptr %56, i64 2
  store ptr %93, ptr %6, align 8
  br label %94

94:                                               ; preds = %55, %85, %83, %58
  %95 = phi ptr [ %56, %55 ], [ %93, %85 ], [ %84, %83 ], [ %74, %58 ]
  %96 = getelementptr inbounds i8, ptr %4, i64 32
  %97 = load i64, ptr %96, align 8
  %98 = trunc i64 %97 to i8
  store i8 %98, ptr %95, align 1
  %99 = load ptr, ptr %6, align 8
  %100 = getelementptr inbounds i8, ptr %99, i64 1
  %101 = load i64, ptr %96, align 8
  %102 = lshr i64 %101, 8
  %103 = trunc i64 %102 to i8
  store i8 %103, ptr %100, align 1
  %104 = getelementptr inbounds i8, ptr %99, i64 2
  store ptr %104, ptr %6, align 8
  %105 = getelementptr inbounds i8, ptr %4, i64 40
  %106 = load i64, ptr %105, align 8
  call void @H5F_addr_encode(ptr noundef %0, ptr noundef nonnull %6, i64 noundef %106) #6
  %107 = load i8, ptr %14, align 8
  %108 = trunc i8 %107 to i1
  br i1 %108, label %.preheader, label %.loopexit

.preheader:                                       ; preds = %94
  %109 = getelementptr inbounds i8, ptr %4, i64 48
  br label %110

110:                                              ; preds = %.preheader, %110
  %indvars.iv = phi i64 [ 1, %.preheader ], [ %indvars.iv.next, %110 ]
  %111 = add nsw i64 %indvars.iv, -1
  %112 = getelementptr inbounds [12 x i64], ptr %109, i64 0, i64 %111
  %113 = load i64, ptr %112, align 8
  call void @H5F_addr_encode(ptr noundef %0, ptr noundef nonnull %6, i64 noundef %113) #6
  %indvars.iv.next = add nuw nsw i64 %indvars.iv, 1
  %exitcond63.not = icmp eq i64 %indvars.iv.next, 13
  br i1 %exitcond63.not, label %.loopexit, label %110

.loopexit:                                        ; preds = %110, %94
  ret i32 0
}